target datalayout = "e-m:e-p270:32:32-p271:32:32-p272:64:64-i64:64-i128:128-f80:128-n8:16:32:64-S128"
target triple = "x86_64-pc-linux-gnu"

%"class.std::optional" = type { %"struct.std::_Optional_base" }
%"struct.std::_Optional_base" = type { %"struct.std::_Optional_payload" }
%"struct.std::_Optional_payload" = type { %"struct.std::_Optional_payload_base.base", i8 }
%"struct.std::_Optional_payload_base.base" = type <{ %"union.std::_Optional_payload_base<short>::_Storage", i8 }>
%"union.std::_Optional_payload_base<short>::_Storage" = type { i16 }
%"struct.std::_Optional_payload_base" = type <{ %"union.std::_Optional_payload_base<short>::_Storage", i8, i8 }>

@_ZN12_GLOBAL__N_120DEPRECATED_LANGUAGESE = internal constant [7 x ptr] [ptr @.str.38, ptr @.str.39, ptr @.str.40, ptr @.str.41, ptr @.str.42, ptr null, ptr null], align 16
@_ZN12_GLOBAL__N_121REPLACEMENT_LANGUAGESE = internal constant [7 x ptr] [ptr @.str.43, ptr @.str.44, ptr @.str.45, ptr @.str.46, ptr @.str.47, ptr null, ptr null], align 16

; Function Attrs: mustprogress nounwind uwtable
define linkonce_odr void @_ZNSt22_Optional_payload_baseIsE8_StorageIsLb1EEC2Ev(ptr noundef nonnull align 2 dereferenceable(2) %0) unnamed_addr #0 comdat align 2 {
  %2 = alloca ptr, align 8
  store ptr %0, ptr %2, align 8, !tbaa !141
  ret void
}

; Function Attrs: mustprogress nounwind uwtable
define linkonce_odr void @_ZNSt22_Optional_payload_baseIsE8_StorageIsLb1EEC2IJsEEESt10in_place_tDpOT_(ptr noundef nonnull align 2 dereferenceable(2) %0, ptr noundef nonnull align 2 dereferenceable(2) %1) unnamed_addr #0 comdat align 2 {
  %3 = alloca ptr, align 8
  %4 = alloca ptr, align 8
  store ptr %0, ptr %3, align 8, !tbaa !141
  store ptr %1, ptr %4, align 8, !tbaa !131
  %5 = load ptr, ptr %3, align 8
  %6 = load ptr, ptr %4, align 8, !tbaa !131
  %7 = load i16, ptr %6, align 2, !tbaa !74
  store i16 %7, ptr %5, align 2, !tbaa !25
  ret void
}

; Function Attrs: mustprogress nounwind uwtable
define linkonce_odr void @_ZNSt22_Optional_payload_baseIsEC2Ev(ptr noundef nonnull align 2 dereferenceable(3) %0) unnamed_addr #0 comdat align 2 {
  %2 = alloca ptr, align 8
  store ptr %0, ptr %2, align 8, !tbaa !137
  %3 = load ptr, ptr %2, align 8
  %4 = getelementptr inbounds nuw %"struct.std::_Optional_payload_base", ptr %3, i32 0, i32 0
  call void @_ZNSt22_Optional_payload_baseIsE8_StorageIsLb1EEC2Ev(ptr noundef nonnull align 2 dereferenceable(2) %4) #11
  %5 = getelementptr inbounds nuw %"struct.std::_Optional_payload_base", ptr %3, i32 0, i32 1
  store i8 0, ptr %5, align 2, !tbaa !139
  ret void
}

; Function Attrs: mustprogress uwtable
define linkonce_odr void @_ZNSt22_Optional_payload_baseIsEC2IJsEEESt10in_place_tDpOT_(ptr noundef nonnull align 2 dereferenceable(3) %0, ptr noundef nonnull align 2 dereferenceable(2) %1) unnamed_addr #1 comdat align 2 {
  %3 = alloca ptr, align 8
  %4 = alloca ptr, align 8
  store ptr %0, ptr %3, align 8, !tbaa !137
  store ptr %1, ptr %4, align 8, !tbaa !131
  %5 = load ptr, ptr %3, align 8
  %6 = getelementptr inbounds nuw %"struct.std::_Optional_payload_base", ptr %5, i32 0, i32 0
  %7 = load ptr, ptr %4, align 8, !tbaa !131
  call void @_ZNSt22_Optional_payload_baseIsE8_StorageIsLb1EEC2IJsEEESt10in_place_tDpOT_(ptr noundef nonnull align 2 dereferenceable(2) %6, ptr noundef nonnull align 2 dereferenceable(2) %7)
  %8 = getelementptr inbounds nuw %"struct.std::_Optional_payload_base", ptr %5, i32 0, i32 1
  store i8 1, ptr %8, align 2, !tbaa !139
  ret void
}

; Function Attrs: mustprogress nounwind uwtable
define linkonce_odr void @_ZNSt17_Optional_payloadIsLb1ELb1ELb1EEC2Ev(ptr noundef nonnull align 2 dereferenceable(3) %0) unnamed_addr #0 comdat align 2 {
  %2 = alloca ptr, align 8
  store ptr %0, ptr %2, align 8, !tbaa !135
  %3 = load ptr, ptr %2, align 8
  call void @_ZNSt22_Optional_payload_baseIsEC2Ev(ptr noundef nonnull align 2 dereferenceable(3) %3) #11
  ret void
}

; Function Attrs: inlinehint mustprogress uwtable
define linkonce_odr void @_ZNSt17_Optional_payloadIsLb1ELb1ELb1EECI2St22_Optional_payload_baseIsEIJsEEESt10in_place_tDpOT_(ptr noundef nonnull align 2 dereferenceable(3) %0, ptr noundef nonnull align 2 dereferenceable(2) %1) unnamed_addr #3 comdat align 2 {
  %3 = alloca ptr, align 8
  %4 = alloca ptr, align 8
  store ptr %0, ptr %3, align 8, !tbaa !135
  store ptr %1, ptr %4, align 8, !tbaa !131
  %5 = load ptr, ptr %3, align 8
  %6 = load ptr, ptr %4, align 8
  call void @_ZNSt22_Optional_payload_baseIsEC2IJsEEESt10in_place_tDpOT_(ptr noundef nonnull align 2 dereferenceable(3) %5, ptr noundef nonnull align 2 dereferenceable(2) %6)
  ret void
}

; Function Attrs: mustprogress nounwind uwtable
define linkonce_odr noundef nonnull align 2 dereferenceable(2) ptr @_ZNSt22_Optional_payload_baseIsE6_M_getEv(ptr noundef nonnull align 2 dereferenceable(3) %0) #0 comdat align 2 {
  %2 = alloca ptr, align 8
  store ptr %0, ptr %2, align 8, !tbaa !137
  %3 = load ptr, ptr %2, align 8
  %4 = getelementptr inbounds nuw %"struct.std::_Optional_payload_base", ptr %3, i32 0, i32 0
  ret ptr %4
}

; Function Attrs: mustprogress nounwind uwtable
define linkonce_odr void @_ZNSt14_Optional_baseIsLb1ELb1EEC2Ev(ptr noundef nonnull align 2 dereferenceable(4) %0) unnamed_addr #0 comdat align 2 {
  %2 = alloca ptr, align 8
  store ptr %0, ptr %2, align 8, !tbaa !133
  %3 = load ptr, ptr %2, align 8
  %4 = getelementptr inbounds nuw %"struct.std::_Optional_base", ptr %3, i32 0, i32 0
  call void @_ZNSt17_Optional_payloadIsLb1ELb1ELb1EEC2Ev(ptr noundef nonnull align 2 dereferenceable(3) %4) #11
  ret void
}

; Function Attrs: noinline noreturn nounwind uwtable
define linkonce_odr hidden void @__clang_call_terminate(ptr noundef %0) #4 comdat {
  %2 = call ptr @__cxa_begin_catch(ptr %0) #11
  call void @_ZSt9terminatev() #13
  unreachable
}

; Function Attrs: mustprogress uwtable
define linkonce_odr void @_ZNSt14_Optional_baseIsLb1ELb1EEC2IJsETnNSt9enable_ifIX18is_constructible_vIsDpT_EEbE4typeELb0EEESt10in_place_tDpOS3_(ptr noundef nonnull align 2 dereferenceable(4) %0, ptr noundef nonnull align 2 dereferenceable(2) %1) unnamed_addr #1 comdat align 2 {
  %3 = alloca ptr, align 8
  %4 = alloca ptr, align 8
  store ptr %0, ptr %3, align 8, !tbaa !133
  store ptr %1, ptr %4, align 8, !tbaa !131
  %5 = load ptr, ptr %3, align 8
  %6 = getelementptr inbounds nuw %"struct.std::_Optional_base", ptr %5, i32 0, i32 0
  %7 = load ptr, ptr %4, align 8, !tbaa !131
  call void @_ZNSt17_Optional_payloadIsLb1ELb1ELb1EECI2St22_Optional_payload_baseIsEIJsEEESt10in_place_tDpOT_(ptr noundef nonnull align 2 dereferenceable(3) %6, ptr noundef nonnull align 2 dereferenceable(2) %7)
  ret void
}

; Function Attrs: mustprogress nounwind uwtable
define linkonce_odr noundef nonnull align 2 dereferenceable(2) ptr @_ZNSt19_Optional_base_implIsSt14_Optional_baseIsLb1ELb1EEE6_M_getEv(ptr noundef nonnull align 1 dereferenceable(1) %0) #0 comdat align 2 {
  %2 = alloca ptr, align 8
  store ptr %0, ptr %2, align 8, !tbaa !143
  %3 = load ptr, ptr %2, align 8
  br label %4

4:                                                ; preds = %1
  br label %5

5:                                                ; preds = %4
  br label %6

6:                                                ; preds = %5
  %7 = getelementptr inbounds nuw %"struct.std::_Optional_base", ptr %3, i32 0, i32 0
  %8 = call noundef nonnull align 2 dereferenceable(2) ptr @_ZNSt22_Optional_payload_baseIsE6_M_getEv(ptr noundef nonnull align 2 dereferenceable(3) %7) #11
  ret ptr %8
}

; Function Attrs: mustprogress nounwind uwtable
define linkonce_odr noundef zeroext i1 @_ZNKSt19_Optional_base_implIsSt14_Optional_baseIsLb1ELb1EEE13_M_is_engagedEv(ptr noundef nonnull align 1 dereferenceable(1) %0) #0 comdat align 2 {
  %2 = alloca ptr, align 8
  store ptr %0, ptr %2, align 8, !tbaa !143
  %3 = load ptr, ptr %2, align 8
  %4 = getelementptr inbounds nuw %"struct.std::_Optional_base", ptr %3, i32 0, i32 0
  %5 = getelementptr inbounds nuw %"struct.std::_Optional_payload_base", ptr %4, i32 0, i32 1
  %6 = load i8, ptr %5, align 2, !tbaa !139, !range !45, !noundef !46
  %7 = trunc i8 %6 to i1
  ret i1 %7
}

; Function Attrs: mustprogress nounwind uwtable
define linkonce_odr void @_ZNSt8optionalIsEC2ESt9nullopt_t(ptr noundef nonnull align 2 dereferenceable(4) %0) unnamed_addr #0 comdat align 2 {
  %2 = alloca ptr, align 8
  store ptr %0, ptr %2, align 8, !tbaa !78
  %3 = load ptr, ptr %2, align 8
  call void @_ZNSt14_Optional_baseIsLb1ELb1EEC2Ev(ptr noundef nonnull align 2 dereferenceable(4) %3) #11
  ret void
}

; Function Attrs: mustprogress nounwind uwtable
define linkonce_odr void @_ZNSt8optionalIsEC2IsTnNSt9enable_ifIX7__and_vISt6__not_ISt7is_sameIS0_NSt9remove_cvINSt16remove_referenceIT_E4typeEE4typeEEES3_IS4_ISt10in_place_tSB_EESt16is_constructibleIsJS7_EESt14is_convertibleIS7_sEEEbE4typeELb1EEEOS7_(ptr noundef nonnull align 2 dereferenceable(4) %0, ptr noundef nonnull align 2 dereferenceable(2) %1) unnamed_addr #0 comdat align 2 personality ptr @__gxx_personality_v0 {
  %3 = alloca ptr, align 8
  %4 = alloca ptr, align 8
  store ptr %0, ptr %3, align 8, !tbaa !78
  store ptr %1, ptr %4, align 8, !tbaa !131
  %5 = load ptr, ptr %3, align 8
  %6 = load ptr, ptr %4, align 8, !tbaa !131
  invoke void @_ZNSt14_Optional_baseIsLb1ELb1EEC2IJsETnNSt9enable_ifIX18is_constructible_vIsDpT_EEbE4typeELb0EEESt10in_place_tDpOS3_(ptr noundef nonnull align 2 dereferenceable(4) %5, ptr noundef nonnull align 2 dereferenceable(2) %6)
          to label %7 unwind label %8

7:                                                ; preds = %2
  ret void

8:                                                ; preds = %2
  %9 = landingpad { ptr, i32 }
          catch ptr null
  %10 = extractvalue { ptr, i32 } %9, 0
  call void @__clang_call_terminate(ptr %10) #13
  unreachable
}

; Function Attrs: mustprogress nounwind uwtable
define linkonce_odr noundef nonnull align 2 dereferenceable(2) ptr @_ZNRSt8optionalIsEdeEv(ptr noundef nonnull align 2 dereferenceable(4) %0) #0 comdat align 2 {
  %2 = alloca ptr, align 8
  store ptr %0, ptr %2, align 8, !tbaa !78
  %3 = load ptr, ptr %2, align 8
  %4 = call noundef nonnull align 2 dereferenceable(2) ptr @_ZNSt19_Optional_base_implIsSt14_Optional_baseIsLb1ELb1EEE6_M_getEv(ptr noundef nonnull align 1 dereferenceable(1) %3) #11
  ret ptr %4
}

; Function Attrs: mustprogress nounwind uwtable
define linkonce_odr noundef zeroext i1 @_ZNKSt8optionalIsE9has_valueEv(ptr noundef nonnull align 2 dereferenceable(4) %0) #0 comdat align 2 {
  %2 = alloca ptr, align 8
  store ptr %0, ptr %2, align 8, !tbaa !78
  %3 = load ptr, ptr %2, align 8
  %4 = call noundef zeroext i1 @_ZNKSt19_Optional_base_implIsSt14_Optional_baseIsLb1ELb1EEE13_M_is_engagedEv(ptr noundef nonnull align 1 dereferenceable(1) %3) #11
  ret i1 %4
}

; Function Attrs: mustprogress nounwind uwtable
define internal i32 @_ZN12_GLOBAL__N_110_findIndexEPKPKcS1_(ptr noundef %0, ptr noundef %1) #0 {
  %3 = alloca %"class.std::optional", align 2
  %4 = alloca ptr, align 8
  %5 = alloca ptr, align 8
  %6 = alloca ptr, align 8
  %7 = alloca i32, align 4
  %8 = alloca i16, align 2
  %9 = alloca i32, align 4
  store ptr %0, ptr %4, align 8, !tbaa !52
  store ptr %1, ptr %5, align 8, !tbaa !17
  call void @llvm.lifetime.start.p0(i64 8, ptr %6) #11
  %10 = load ptr, ptr %4, align 8, !tbaa !52
  store ptr %10, ptr %6, align 8, !tbaa !52
  call void @llvm.lifetime.start.p0(i64 4, ptr %7) #11
  store i32 0, ptr %7, align 4, !tbaa !14
  br label %11

11:                                               ; preds = %37, %2
  %12 = load i32, ptr %7, align 4, !tbaa !14
  %13 = add nsw i32 %12, 1
  store i32 %13, ptr %7, align 4, !tbaa !14
  %14 = icmp slt i32 %12, 2
  br i1 %14, label %15, label %40

15:                                               ; preds = %11
  br label %16

16:                                               ; preds = %34, %15
  %17 = load ptr, ptr %4, align 8, !tbaa !52
  %18 = load ptr, ptr %17, align 8, !tbaa !17
  %19 = icmp ne ptr %18, null
  br i1 %19, label %20, label %37

20:                                               ; preds = %16
  %21 = load ptr, ptr %5, align 8, !tbaa !17
  %22 = load ptr, ptr %4, align 8, !tbaa !52
  %23 = load ptr, ptr %22, align 8, !tbaa !17
  %24 = call i32 @strcmp(ptr noundef %21, ptr noundef %23) #14
  %25 = icmp eq i32 %24, 0
  br i1 %25, label %26, label %34

26:                                               ; preds = %20
  call void @llvm.lifetime.start.p0(i64 2, ptr %8) #11
  %27 = load ptr, ptr %4, align 8, !tbaa !52
  %28 = load ptr, ptr %6, align 8, !tbaa !52
  %29 = ptrtoint ptr %27 to i64
  %30 = ptrtoint ptr %28 to i64
  %31 = sub i64 %29, %30
  %32 = sdiv exact i64 %31, 8
  %33 = trunc i64 %32 to i16
  store i16 %33, ptr %8, align 2, !tbaa !74
  call void @_ZNSt8optionalIsEC2IsTnNSt9enable_ifIX7__and_vISt6__not_ISt7is_sameIS0_NSt9remove_cvINSt16remove_referenceIT_E4typeEE4typeEEES3_IS4_ISt10in_place_tSB_EESt16is_constructibleIsJS7_EESt14is_convertibleIS7_sEEEbE4typeELb1EEEOS7_(ptr noundef nonnull align 2 dereferenceable(4) %3, ptr noundef nonnull align 2 dereferenceable(2) %8) #11
  call void @llvm.lifetime.end.p0(i64 2, ptr %8) #11
  store i32 1, ptr %9, align 4
  br label %41

34:                                               ; preds = %20
  %35 = load ptr, ptr %4, align 8, !tbaa !52
  %36 = getelementptr inbounds nuw ptr, ptr %35, i32 1
  store ptr %36, ptr %4, align 8, !tbaa !52
  br label %16, !llvm.loop !76

37:                                               ; preds = %16
  %38 = load ptr, ptr %4, align 8, !tbaa !52
  %39 = getelementptr inbounds nuw ptr, ptr %38, i32 1
  store ptr %39, ptr %4, align 8, !tbaa !52
  br label %11, !llvm.loop !77

40:                                               ; preds = %11
  call void @_ZNSt8optionalIsEC2ESt9nullopt_t(ptr noundef nonnull align 2 dereferenceable(4) %3) #11
  store i32 1, ptr %9, align 4
  br label %41

41:                                               ; preds = %40, %26
  call void @llvm.lifetime.end.p0(i64 4, ptr %7) #11
  call void @llvm.lifetime.end.p0(i64 8, ptr %6) #11
  %42 = getelementptr inbounds nuw %"class.std::optional", ptr %3, i32 0, i32 0
  %43 = getelementptr inbounds nuw %"struct.std::_Optional_base", ptr %42, i32 0, i32 0
  %44 = load i32, ptr %43, align 2
  ret i32 %44
}

; Function Attrs: mustprogress uwtable
define ptr @uloc_getCurrentLanguageID_77(ptr noundef %0) #1 {
  %2 = alloca ptr, align 8
  %3 = alloca %"class.std::optional", align 2
  store ptr %0, ptr %2, align 8, !tbaa !17
  call void @llvm.lifetime.start.p0(i64 4, ptr %3) #11
  %4 = load ptr, ptr %2, align 8, !tbaa !17
  %5 = call i32 @_ZN12_GLOBAL__N_110_findIndexEPKPKcS1_(ptr noundef @_ZN12_GLOBAL__N_120DEPRECATED_LANGUAGESE, ptr noundef %4)
  %6 = getelementptr inbounds nuw %"class.std::optional", ptr %3, i32 0, i32 0
  %7 = getelementptr inbounds nuw %"struct.std::_Optional_base", ptr %6, i32 0, i32 0
  store i32 %5, ptr %7, align 2
  %8 = call noundef zeroext i1 @_ZNKSt8optionalIsE9has_valueEv(ptr noundef nonnull align 2 dereferenceable(4) %3) #11
  br i1 %8, label %9, label %15

9:                                                ; preds = %1
  %10 = call noundef nonnull align 2 dereferenceable(2) ptr @_ZNRSt8optionalIsEdeEv(ptr noundef nonnull align 2 dereferenceable(4) %3) #11
  %11 = load i16, ptr %10, align 2, !tbaa !74
  %12 = sext i16 %11 to i64
  %13 = getelementptr inbounds [7 x ptr], ptr @_ZN12_GLOBAL__N_121REPLACEMENT_LANGUAGESE, i64 0, i64 %12
  %14 = load ptr, ptr %13, align 8, !tbaa !17
  br label %17

15:                                               ; preds = %1
  %16 = load ptr, ptr %2, align 8, !tbaa !17
  br label %17

17:                                               ; preds = %15, %9
  %18 = phi ptr [ %14, %9 ], [ %16, %15 ]
  call void @llvm.lifetime.end.p0(i64 4, ptr %3) #11
  ret ptr %18
}